
rv32ui-p-slli:     ファイル形式 elf32-littleriscv


セクション .text.init の逆アセンブル:

00000000 <_start>:
   0:	00100093          	li	ra,1
   4:	00009713          	slli	a4,ra,0x0
   8:	00100393          	li	t2,1
   c:	00200193          	li	gp,2
  10:	26771a63          	bne	a4,t2,284 <fail>

00000014 <test_3>:
  14:	00100093          	li	ra,1
  18:	00109713          	slli	a4,ra,0x1
  1c:	00200393          	li	t2,2
  20:	00300193          	li	gp,3
  24:	26771063          	bne	a4,t2,284 <fail>

00000028 <test_4>:
  28:	00100093          	li	ra,1
  2c:	00709713          	slli	a4,ra,0x7
  30:	08000393          	li	t2,128
  34:	00400193          	li	gp,4
  38:	24771663          	bne	a4,t2,284 <fail>

0000003c <test_5>:
  3c:	00100093          	li	ra,1
  40:	00e09713          	slli	a4,ra,0xe
  44:	000043b7          	lui	t2,0x4
  48:	00500193          	li	gp,5
  4c:	22771c63          	bne	a4,t2,284 <fail>

00000050 <test_6>:
  50:	00100093          	li	ra,1
  54:	01f09713          	slli	a4,ra,0x1f
  58:	800003b7          	lui	t2,0x80000
  5c:	00600193          	li	gp,6
  60:	22771263          	bne	a4,t2,284 <fail>

00000064 <test_7>:
  64:	fff00093          	li	ra,-1
  68:	00009713          	slli	a4,ra,0x0
  6c:	fff00393          	li	t2,-1
  70:	00700193          	li	gp,7
  74:	20771863          	bne	a4,t2,284 <fail>

00000078 <test_8>:
  78:	fff00093          	li	ra,-1
  7c:	00109713          	slli	a4,ra,0x1
  80:	ffe00393          	li	t2,-2
  84:	00800193          	li	gp,8
  88:	1e771e63          	bne	a4,t2,284 <fail>

0000008c <test_9>:
  8c:	fff00093          	li	ra,-1
  90:	00709713          	slli	a4,ra,0x7
  94:	f8000393          	li	t2,-128
  98:	00900193          	li	gp,9
  9c:	1e771463          	bne	a4,t2,284 <fail>

000000a0 <test_10>:
  a0:	fff00093          	li	ra,-1
  a4:	00e09713          	slli	a4,ra,0xe
  a8:	ffffc3b7          	lui	t2,0xffffc
  ac:	00a00193          	li	gp,10
  b0:	1c771a63          	bne	a4,t2,284 <fail>

000000b4 <test_11>:
  b4:	fff00093          	li	ra,-1
  b8:	01f09713          	slli	a4,ra,0x1f
  bc:	800003b7          	lui	t2,0x80000
  c0:	00b00193          	li	gp,11
  c4:	1c771063          	bne	a4,t2,284 <fail>

000000c8 <test_12>:
  c8:	212120b7          	lui	ra,0x21212
  cc:	12108093          	addi	ra,ra,289 # 21212121 <_end+0x21210121>
  d0:	00009713          	slli	a4,ra,0x0
  d4:	212123b7          	lui	t2,0x21212
  d8:	12138393          	addi	t2,t2,289 # 21212121 <_end+0x21210121>
  dc:	00c00193          	li	gp,12
  e0:	1a771263          	bne	a4,t2,284 <fail>

000000e4 <test_13>:
  e4:	212120b7          	lui	ra,0x21212
  e8:	12108093          	addi	ra,ra,289 # 21212121 <_end+0x21210121>
  ec:	00109713          	slli	a4,ra,0x1
  f0:	424243b7          	lui	t2,0x42424
  f4:	24238393          	addi	t2,t2,578 # 42424242 <_end+0x42422242>
  f8:	00d00193          	li	gp,13
  fc:	18771463          	bne	a4,t2,284 <fail>

00000100 <test_14>:
 100:	212120b7          	lui	ra,0x21212
 104:	12108093          	addi	ra,ra,289 # 21212121 <_end+0x21210121>
 108:	00709713          	slli	a4,ra,0x7
 10c:	909093b7          	lui	t2,0x90909
 110:	08038393          	addi	t2,t2,128 # 90909080 <_end+0x90907080>
 114:	00e00193          	li	gp,14
 118:	16771663          	bne	a4,t2,284 <fail>

0000011c <test_15>:
 11c:	212120b7          	lui	ra,0x21212
 120:	12108093          	addi	ra,ra,289 # 21212121 <_end+0x21210121>
 124:	00e09713          	slli	a4,ra,0xe
 128:	484843b7          	lui	t2,0x48484
 12c:	00f00193          	li	gp,15
 130:	14771a63          	bne	a4,t2,284 <fail>

00000134 <test_16>:
 134:	212120b7          	lui	ra,0x21212
 138:	12108093          	addi	ra,ra,289 # 21212121 <_end+0x21210121>
 13c:	01f09713          	slli	a4,ra,0x1f
 140:	800003b7          	lui	t2,0x80000
 144:	01000193          	li	gp,16
 148:	12771e63          	bne	a4,t2,284 <fail>

0000014c <test_17>:
 14c:	00100093          	li	ra,1
 150:	00709093          	slli	ra,ra,0x7
 154:	08000393          	li	t2,128
 158:	01100193          	li	gp,17
 15c:	12709463          	bne	ra,t2,284 <fail>

00000160 <test_18>:
 160:	00000213          	li	tp,0
 164:	00100093          	li	ra,1
 168:	00709713          	slli	a4,ra,0x7
 16c:	00070313          	mv	t1,a4
 170:	00120213          	addi	tp,tp,1 # 1 <_start+0x1>
 174:	00200293          	li	t0,2
 178:	fe5216e3          	bne	tp,t0,164 <test_18+0x4>
 17c:	08000393          	li	t2,128
 180:	01200193          	li	gp,18
 184:	10731063          	bne	t1,t2,284 <fail>

00000188 <test_19>:
 188:	00000213          	li	tp,0
 18c:	00100093          	li	ra,1
 190:	00e09713          	slli	a4,ra,0xe
 194:	00000013          	nop
 198:	00070313          	mv	t1,a4
 19c:	00120213          	addi	tp,tp,1 # 1 <_start+0x1>
 1a0:	00200293          	li	t0,2
 1a4:	fe5214e3          	bne	tp,t0,18c <test_19+0x4>
 1a8:	000043b7          	lui	t2,0x4
 1ac:	01300193          	li	gp,19
 1b0:	0c731a63          	bne	t1,t2,284 <fail>

000001b4 <test_20>:
 1b4:	00000213          	li	tp,0
 1b8:	00100093          	li	ra,1
 1bc:	01f09713          	slli	a4,ra,0x1f
 1c0:	00000013          	nop
 1c4:	00000013          	nop
 1c8:	00070313          	mv	t1,a4
 1cc:	00120213          	addi	tp,tp,1 # 1 <_start+0x1>
 1d0:	00200293          	li	t0,2
 1d4:	fe5212e3          	bne	tp,t0,1b8 <test_20+0x4>
 1d8:	800003b7          	lui	t2,0x80000
 1dc:	01400193          	li	gp,20
 1e0:	0a731263          	bne	t1,t2,284 <fail>

000001e4 <test_21>:
 1e4:	00000213          	li	tp,0
 1e8:	00100093          	li	ra,1
 1ec:	00709713          	slli	a4,ra,0x7
 1f0:	00120213          	addi	tp,tp,1 # 1 <_start+0x1>
 1f4:	00200293          	li	t0,2
 1f8:	fe5218e3          	bne	tp,t0,1e8 <test_21+0x4>
 1fc:	08000393          	li	t2,128
 200:	01500193          	li	gp,21
 204:	08771063          	bne	a4,t2,284 <fail>

00000208 <test_22>:
 208:	00000213          	li	tp,0
 20c:	00100093          	li	ra,1
 210:	00000013          	nop
 214:	00e09713          	slli	a4,ra,0xe
 218:	00120213          	addi	tp,tp,1 # 1 <_start+0x1>
 21c:	00200293          	li	t0,2
 220:	fe5216e3          	bne	tp,t0,20c <test_22+0x4>
 224:	000043b7          	lui	t2,0x4
 228:	01600193          	li	gp,22
 22c:	04771c63          	bne	a4,t2,284 <fail>

00000230 <test_23>:
 230:	00000213          	li	tp,0
 234:	00100093          	li	ra,1
 238:	00000013          	nop
 23c:	00000013          	nop
 240:	01f09713          	slli	a4,ra,0x1f
 244:	00120213          	addi	tp,tp,1 # 1 <_start+0x1>
 248:	00200293          	li	t0,2
 24c:	fe5214e3          	bne	tp,t0,234 <test_23+0x4>
 250:	800003b7          	lui	t2,0x80000
 254:	01700193          	li	gp,23
 258:	02771663          	bne	a4,t2,284 <fail>

0000025c <test_24>:
 25c:	01f01093          	slli	ra,zero,0x1f
 260:	00000393          	li	t2,0
 264:	01800193          	li	gp,24
 268:	00709e63          	bne	ra,t2,284 <fail>

0000026c <test_25>:
 26c:	02100093          	li	ra,33
 270:	01409013          	slli	zero,ra,0x14
 274:	00000393          	li	t2,0
 278:	01900193          	li	gp,25
 27c:	00701463          	bne	zero,t2,284 <fail>
 280:	04301263          	bne	zero,gp,2c4 <pass>

00000284 <fail>:
 284:	0ff0000f          	fence
 288:	00018063          	beqz	gp,288 <fail+0x4>
 28c:	00119193          	slli	gp,gp,0x1
 290:	0011e193          	ori	gp,gp,1
 294:	05d00893          	li	a7,93
 298:	00018513          	mv	a0,gp
 29c:	000105b7          	lui	a1,0x10
 2a0:	ff058593          	addi	a1,a1,-16 # fff0 <_end+0xdff0>
 2a4:	04600613          	li	a2,70
 2a8:	00c58023          	sb	a2,0(a1)
 2ac:	00000013          	nop
 2b0:	00000013          	nop
 2b4:	00000013          	nop
 2b8:	00a00613          	li	a2,10
 2bc:	00c58023          	sb	a2,0(a1)
 2c0:	0340006f          	j	2f4 <__loop>

000002c4 <pass>:
 2c4:	0ff0000f          	fence
 2c8:	00100193          	li	gp,1
 2cc:	000105b7          	lui	a1,0x10
 2d0:	ff058593          	addi	a1,a1,-16 # fff0 <_end+0xdff0>
 2d4:	05000613          	li	a2,80
 2d8:	00c58023          	sb	a2,0(a1)
 2dc:	00000013          	nop
 2e0:	00000013          	nop
 2e4:	00000013          	nop
 2e8:	00a00613          	li	a2,10
 2ec:	00c58023          	sb	a2,0(a1)
 2f0:	0040006f          	j	2f4 <__loop>

000002f4 <__loop>:
 2f4:	0000006f          	j	2f4 <__loop>
 2f8:	0000                	unimp
 2fa:	0000                	unimp
 2fc:	0000                	unimp
 2fe:	0000                	unimp
 300:	0000                	unimp
 302:	0000                	unimp
