
rv32ui-p-lh:     ファイル形式 elf32-littleriscv


セクション .text.init の逆アセンブル:

00000000 <_start>:
   0:	00002097          	auipc	ra,0x2
   4:	00008093          	mv	ra,ra
   8:	00009703          	lh	a4,0(ra) # 2000 <begin_signature>
   c:	0ff00393          	li	t2,255
  10:	00200193          	li	gp,2
  14:	24771c63          	bne	a4,t2,26c <fail>

00000018 <test_3>:
  18:	00002097          	auipc	ra,0x2
  1c:	fe808093          	addi	ra,ra,-24 # 2000 <begin_signature>
  20:	00209703          	lh	a4,2(ra)
  24:	f0000393          	li	t2,-256
  28:	00300193          	li	gp,3
  2c:	24771063          	bne	a4,t2,26c <fail>

00000030 <test_4>:
  30:	00002097          	auipc	ra,0x2
  34:	fd008093          	addi	ra,ra,-48 # 2000 <begin_signature>
  38:	00409703          	lh	a4,4(ra)
  3c:	000013b7          	lui	t2,0x1
  40:	ff038393          	addi	t2,t2,-16 # ff0 <__loop+0xd14>
  44:	00400193          	li	gp,4
  48:	22771263          	bne	a4,t2,26c <fail>

0000004c <test_5>:
  4c:	00002097          	auipc	ra,0x2
  50:	fb408093          	addi	ra,ra,-76 # 2000 <begin_signature>
  54:	00609703          	lh	a4,6(ra)
  58:	fffff3b7          	lui	t2,0xfffff
  5c:	00f38393          	addi	t2,t2,15 # fffff00f <_end+0xffffcfff>
  60:	00500193          	li	gp,5
  64:	20771463          	bne	a4,t2,26c <fail>

00000068 <test_6>:
  68:	00002097          	auipc	ra,0x2
  6c:	f9e08093          	addi	ra,ra,-98 # 2006 <tdat4>
  70:	ffa09703          	lh	a4,-6(ra)
  74:	0ff00393          	li	t2,255
  78:	00600193          	li	gp,6
  7c:	1e771863          	bne	a4,t2,26c <fail>

00000080 <test_7>:
  80:	00002097          	auipc	ra,0x2
  84:	f8608093          	addi	ra,ra,-122 # 2006 <tdat4>
  88:	ffc09703          	lh	a4,-4(ra)
  8c:	f0000393          	li	t2,-256
  90:	00700193          	li	gp,7
  94:	1c771c63          	bne	a4,t2,26c <fail>

00000098 <test_8>:
  98:	00002097          	auipc	ra,0x2
  9c:	f6e08093          	addi	ra,ra,-146 # 2006 <tdat4>
  a0:	ffe09703          	lh	a4,-2(ra)
  a4:	000013b7          	lui	t2,0x1
  a8:	ff038393          	addi	t2,t2,-16 # ff0 <__loop+0xd14>
  ac:	00800193          	li	gp,8
  b0:	1a771e63          	bne	a4,t2,26c <fail>

000000b4 <test_9>:
  b4:	00002097          	auipc	ra,0x2
  b8:	f5208093          	addi	ra,ra,-174 # 2006 <tdat4>
  bc:	00009703          	lh	a4,0(ra)
  c0:	fffff3b7          	lui	t2,0xfffff
  c4:	00f38393          	addi	t2,t2,15 # fffff00f <_end+0xffffcfff>
  c8:	00900193          	li	gp,9
  cc:	1a771063          	bne	a4,t2,26c <fail>

000000d0 <test_10>:
  d0:	00002097          	auipc	ra,0x2
  d4:	f3008093          	addi	ra,ra,-208 # 2000 <begin_signature>
  d8:	fe008093          	addi	ra,ra,-32
  dc:	02009283          	lh	t0,32(ra)
  e0:	0ff00393          	li	t2,255
  e4:	00a00193          	li	gp,10
  e8:	18729263          	bne	t0,t2,26c <fail>

000000ec <test_11>:
  ec:	00002097          	auipc	ra,0x2
  f0:	f1408093          	addi	ra,ra,-236 # 2000 <begin_signature>
  f4:	ffb08093          	addi	ra,ra,-5
  f8:	00709283          	lh	t0,7(ra)
  fc:	f0000393          	li	t2,-256
 100:	00b00193          	li	gp,11
 104:	16729463          	bne	t0,t2,26c <fail>

00000108 <test_12>:
 108:	00c00193          	li	gp,12
 10c:	00000213          	li	tp,0
 110:	00002097          	auipc	ra,0x2
 114:	ef208093          	addi	ra,ra,-270 # 2002 <tdat2>
 118:	00209703          	lh	a4,2(ra)
 11c:	00070313          	mv	t1,a4
 120:	000013b7          	lui	t2,0x1
 124:	ff038393          	addi	t2,t2,-16 # ff0 <__loop+0xd14>
 128:	14731263          	bne	t1,t2,26c <fail>
 12c:	00120213          	addi	tp,tp,1 # 1 <_start+0x1>
 130:	00200293          	li	t0,2
 134:	fc521ee3          	bne	tp,t0,110 <test_12+0x8>

00000138 <test_13>:
 138:	00d00193          	li	gp,13
 13c:	00000213          	li	tp,0
 140:	00002097          	auipc	ra,0x2
 144:	ec408093          	addi	ra,ra,-316 # 2004 <tdat3>
 148:	00209703          	lh	a4,2(ra)
 14c:	00000013          	nop
 150:	00070313          	mv	t1,a4
 154:	fffff3b7          	lui	t2,0xfffff
 158:	00f38393          	addi	t2,t2,15 # fffff00f <_end+0xffffcfff>
 15c:	10731863          	bne	t1,t2,26c <fail>
 160:	00120213          	addi	tp,tp,1 # 1 <_start+0x1>
 164:	00200293          	li	t0,2
 168:	fc521ce3          	bne	tp,t0,140 <test_13+0x8>

0000016c <test_14>:
 16c:	00e00193          	li	gp,14
 170:	00000213          	li	tp,0
 174:	00002097          	auipc	ra,0x2
 178:	e8c08093          	addi	ra,ra,-372 # 2000 <begin_signature>
 17c:	00209703          	lh	a4,2(ra)
 180:	00000013          	nop
 184:	00000013          	nop
 188:	00070313          	mv	t1,a4
 18c:	f0000393          	li	t2,-256
 190:	0c731e63          	bne	t1,t2,26c <fail>
 194:	00120213          	addi	tp,tp,1 # 1 <_start+0x1>
 198:	00200293          	li	t0,2
 19c:	fc521ce3          	bne	tp,t0,174 <test_14+0x8>

000001a0 <test_15>:
 1a0:	00f00193          	li	gp,15
 1a4:	00000213          	li	tp,0
 1a8:	00002097          	auipc	ra,0x2
 1ac:	e5a08093          	addi	ra,ra,-422 # 2002 <tdat2>
 1b0:	00209703          	lh	a4,2(ra)
 1b4:	000013b7          	lui	t2,0x1
 1b8:	ff038393          	addi	t2,t2,-16 # ff0 <__loop+0xd14>
 1bc:	0a771863          	bne	a4,t2,26c <fail>
 1c0:	00120213          	addi	tp,tp,1 # 1 <_start+0x1>
 1c4:	00200293          	li	t0,2
 1c8:	fe5210e3          	bne	tp,t0,1a8 <test_15+0x8>

000001cc <test_16>:
 1cc:	01000193          	li	gp,16
 1d0:	00000213          	li	tp,0
 1d4:	00002097          	auipc	ra,0x2
 1d8:	e3008093          	addi	ra,ra,-464 # 2004 <tdat3>
 1dc:	00000013          	nop
 1e0:	00209703          	lh	a4,2(ra)
 1e4:	fffff3b7          	lui	t2,0xfffff
 1e8:	00f38393          	addi	t2,t2,15 # fffff00f <_end+0xffffcfff>
 1ec:	08771063          	bne	a4,t2,26c <fail>
 1f0:	00120213          	addi	tp,tp,1 # 1 <_start+0x1>
 1f4:	00200293          	li	t0,2
 1f8:	fc521ee3          	bne	tp,t0,1d4 <test_16+0x8>

000001fc <test_17>:
 1fc:	01100193          	li	gp,17
 200:	00000213          	li	tp,0
 204:	00002097          	auipc	ra,0x2
 208:	dfc08093          	addi	ra,ra,-516 # 2000 <begin_signature>
 20c:	00000013          	nop
 210:	00000013          	nop
 214:	00209703          	lh	a4,2(ra)
 218:	f0000393          	li	t2,-256
 21c:	04771863          	bne	a4,t2,26c <fail>
 220:	00120213          	addi	tp,tp,1 # 1 <_start+0x1>
 224:	00200293          	li	t0,2
 228:	fc521ee3          	bne	tp,t0,204 <test_17+0x8>

0000022c <test_18>:
 22c:	00002297          	auipc	t0,0x2
 230:	dd428293          	addi	t0,t0,-556 # 2000 <begin_signature>
 234:	00029103          	lh	sp,0(t0)
 238:	00200113          	li	sp,2
 23c:	00200393          	li	t2,2
 240:	01200193          	li	gp,18
 244:	02711463          	bne	sp,t2,26c <fail>

00000248 <test_19>:
 248:	00002297          	auipc	t0,0x2
 24c:	db828293          	addi	t0,t0,-584 # 2000 <begin_signature>
 250:	00029103          	lh	sp,0(t0)
 254:	00000013          	nop
 258:	00200113          	li	sp,2
 25c:	00200393          	li	t2,2
 260:	01300193          	li	gp,19
 264:	00711463          	bne	sp,t2,26c <fail>
 268:	04301263          	bne	zero,gp,2ac <pass>

0000026c <fail>:
 26c:	0ff0000f          	fence
 270:	00018063          	beqz	gp,270 <fail+0x4>
 274:	00119193          	slli	gp,gp,0x1
 278:	0011e193          	ori	gp,gp,1
 27c:	05d00893          	li	a7,93
 280:	00018513          	mv	a0,gp
 284:	000105b7          	lui	a1,0x10
 288:	ff058593          	addi	a1,a1,-16 # fff0 <_end+0xdfe0>
 28c:	04600613          	li	a2,70
 290:	00c58023          	sb	a2,0(a1)
 294:	00000013          	nop
 298:	00000013          	nop
 29c:	00000013          	nop
 2a0:	00a00613          	li	a2,10
 2a4:	00c58023          	sb	a2,0(a1)
 2a8:	0340006f          	j	2dc <__loop>

000002ac <pass>:
 2ac:	0ff0000f          	fence
 2b0:	00100193          	li	gp,1
 2b4:	000105b7          	lui	a1,0x10
 2b8:	ff058593          	addi	a1,a1,-16 # fff0 <_end+0xdfe0>
 2bc:	05000613          	li	a2,80
 2c0:	00c58023          	sb	a2,0(a1)
 2c4:	00000013          	nop
 2c8:	00000013          	nop
 2cc:	00000013          	nop
 2d0:	00a00613          	li	a2,10
 2d4:	00c58023          	sb	a2,0(a1)
 2d8:	0040006f          	j	2dc <__loop>

000002dc <__loop>:
 2dc:	0000006f          	j	2dc <__loop>
 2e0:	0000                	unimp
 2e2:	0000                	unimp
 2e4:	0000                	unimp
 2e6:	0000                	unimp
 2e8:	0000                	unimp
 2ea:	0000                	unimp
 2ec:	0000                	unimp
 2ee:	0000                	unimp
 2f0:	0000                	unimp
 2f2:	0000                	unimp
 2f4:	0000                	unimp
 2f6:	0000                	unimp
 2f8:	0000                	unimp
 2fa:	0000                	unimp
 2fc:	0000                	unimp
 2fe:	0000                	unimp
 300:	0000                	unimp
 302:	0000                	unimp

セクション .data の逆アセンブル:

00002000 <begin_signature>:
    2000:	00ff                	0xff

00002002 <tdat2>:
    2002:	ff00                	fsw	fs0,56(a4)

00002004 <tdat3>:
    2004:	0ff0                	addi	a2,sp,988

00002006 <tdat4>:
    2006:	0000f00f          	0xf00f
    200a:	0000                	unimp
    200c:	0000                	unimp
    200e:	0000                	unimp
